target datalayout = "e-m:e-p270:32:32-p271:32:32-p272:64:64-i64:64-i128:128-f80:128-n8:16:32:64-S128"
target triple = "x86_64-pc-linux-gnu"

%struct.DefElem = type { i32, ptr, ptr, ptr, i32, i32 }
%struct.Node = type { i32 }
%struct.Integer = type { i32, i32 }
%struct.String = type { i32, ptr }

@.str = private unnamed_addr constant [24 x i8] c"%s requires a parameter\00", align 1
@.str.1 = private unnamed_addr constant [9 x i8] c"define.c\00", align 1
@.str.6 = private unnamed_addr constant [27 x i8] c"unrecognized node type: %d\00", align 1
@.str.11 = private unnamed_addr constant [29 x i8] c"%s requires an integer value\00", align 1
@__func__.defGetTypeLength = private unnamed_addr constant [17 x i8] c"defGetTypeLength\00", align 1
@.str.14 = private unnamed_addr constant [9 x i8] c"variable\00", align 1
@.str.15 = private unnamed_addr constant [30 x i8] c"invalid argument for %s: \22%s\22\00", align 1

; Function Attrs: nounwind uwtable
define dso_local i32 @defGetTypeLength(ptr noundef %0) #0 {
  %2 = alloca i32, align 4
  %3 = alloca ptr, align 8
  store ptr %0, ptr %3, align 8
  %4 = load ptr, ptr %3, align 8
  %5 = getelementptr inbounds nuw %struct.DefElem, ptr %4, i32 0, i32 3
  %6 = load ptr, ptr %5, align 8
  %7 = icmp eq ptr %6, null
  br i1 %7, label %8, label %22

8:                                                ; preds = %1
  br label %9

9:                                                ; preds = %8
  br i1 true, label %10, label %12

10:                                               ; preds = %9
  %11 = call zeroext i1 @errstart_cold(i32 noundef 21, ptr noundef null) #9
  br i1 %11, label %14, label %20

12:                                               ; preds = %9
  %13 = call zeroext i1 @errstart(i32 noundef 21, ptr noundef null)
  br i1 %13, label %14, label %20

14:                                               ; preds = %12, %10
  %15 = call i32 @errcode(i32 noundef 16801924)
  %16 = load ptr, ptr %3, align 8
  %17 = getelementptr inbounds nuw %struct.DefElem, ptr %16, i32 0, i32 2
  %18 = load ptr, ptr %17, align 8
  %19 = call i32 (ptr, ...) @errmsg(ptr noundef @.str, ptr noundef %18)
  call void @errfinish(ptr noundef @.str.1, i32 noundef 305, ptr noundef @__func__.defGetTypeLength)
  br label %20

20:                                               ; preds = %14, %12, %10
  unreachable

21:                                               ; No predecessors!
  br label %22

22:                                               ; preds = %21, %1
  %23 = load ptr, ptr %3, align 8
  %24 = getelementptr inbounds nuw %struct.DefElem, ptr %23, i32 0, i32 3
  %25 = load ptr, ptr %24, align 8
  %26 = getelementptr inbounds nuw %struct.Node, ptr %25, i32 0, i32 0
  %27 = load i32, ptr %26, align 4
  switch i32 %27, label %67 [
    i32 464, label %28
    i32 465, label %34
    i32 467, label %48
    i32 68, label %58
    i32 1, label %82
  ]

28:                                               ; preds = %22
  %29 = load ptr, ptr %3, align 8
  %30 = getelementptr inbounds nuw %struct.DefElem, ptr %29, i32 0, i32 3
  %31 = load ptr, ptr %30, align 8
  %32 = getelementptr inbounds nuw %struct.Integer, ptr %31, i32 0, i32 1
  %33 = load i32, ptr %32, align 4
  store i32 %33, ptr %2, align 4
  br label %98

34:                                               ; preds = %22
  br label %35

35:                                               ; preds = %34
  br i1 true, label %36, label %38

36:                                               ; preds = %35
  %37 = call zeroext i1 @errstart_cold(i32 noundef 21, ptr noundef null) #9
  br i1 %37, label %40, label %46

38:                                               ; preds = %35
  %39 = call zeroext i1 @errstart(i32 noundef 21, ptr noundef null)
  br i1 %39, label %40, label %46

40:                                               ; preds = %38, %36
  %41 = call i32 @errcode(i32 noundef 16801924)
  %42 = load ptr, ptr %3, align 8
  %43 = getelementptr inbounds nuw %struct.DefElem, ptr %42, i32 0, i32 2
  %44 = load ptr, ptr %43, align 8
  %45 = call i32 (ptr, ...) @errmsg(ptr noundef @.str.11, ptr noundef %44)
  call void @errfinish(ptr noundef @.str.1, i32 noundef 314, ptr noundef @__func__.defGetTypeLength)
  br label %46

46:                                               ; preds = %40, %38, %36
  unreachable

47:                                               ; No predecessors!
  br label %82

48:                                               ; preds = %22
  %49 = load ptr, ptr %3, align 8
  %50 = getelementptr inbounds nuw %struct.DefElem, ptr %49, i32 0, i32 3
  %51 = load ptr, ptr %50, align 8
  %52 = getelementptr inbounds nuw %struct.String, ptr %51, i32 0, i32 1
  %53 = load ptr, ptr %52, align 8
  %54 = call i32 @pg_strcasecmp(ptr noundef %53, ptr noundef @.str.14)
  %55 = icmp eq i32 %54, 0
  br i1 %55, label %56, label %57

56:                                               ; preds = %48
  store i32 -1, ptr %2, align 4
  br label %98

57:                                               ; preds = %48
  br label %82

58:                                               ; preds = %22
  %59 = load ptr, ptr %3, align 8
  %60 = getelementptr inbounds nuw %struct.DefElem, ptr %59, i32 0, i32 3
  %61 = load ptr, ptr %60, align 8
  %62 = call ptr @TypeNameToString(ptr noundef %61)
  %63 = call i32 @pg_strcasecmp(ptr noundef %62, ptr noundef @.str.14)
  %64 = icmp eq i32 %63, 0
  br i1 %64, label %65, label %66

65:                                               ; preds = %58
  store i32 -1, ptr %2, align 4
  br label %98

66:                                               ; preds = %58
  br label %82

67:                                               ; preds = %22
  br label %68

68:                                               ; preds = %67
  br i1 true, label %69, label %71

69:                                               ; preds = %68
  %70 = call zeroext i1 @errstart_cold(i32 noundef 21, ptr noundef null) #9
  br i1 %70, label %73, label %80

71:                                               ; preds = %68
  %72 = call zeroext i1 @errstart(i32 noundef 21, ptr noundef null)
  br i1 %72, label %73, label %80

73:                                               ; preds = %71, %69
  %74 = load ptr, ptr %3, align 8
  %75 = getelementptr inbounds nuw %struct.DefElem, ptr %74, i32 0, i32 3
  %76 = load ptr, ptr %75, align 8
  %77 = getelementptr inbounds nuw %struct.Node, ptr %76, i32 0, i32 0
  %78 = load i32, ptr %77, align 4
  %79 = call i32 (ptr, ...) @errmsg_internal(ptr noundef @.str.6, i32 noundef %78)
  call void @errfinish(ptr noundef @.str.1, i32 noundef 330, ptr noundef @__func__.defGetTypeLength)
  br label %80

80:                                               ; preds = %73, %71, %69
  unreachable

81:                                               ; No predecessors!
  br label %82

82:                                               ; preds = %81, %22, %66, %57, %47
  br label %83

83:                                               ; preds = %82
  br i1 true, label %84, label %86

84:                                               ; preds = %83
  %85 = call zeroext i1 @errstart_cold(i32 noundef 21, ptr noundef null) #9
  br i1 %85, label %88, label %96

86:                                               ; preds = %83
  %87 = call zeroext i1 @errstart(i32 noundef 21, ptr noundef null)
  br i1 %87, label %88, label %96

88:                                               ; preds = %86, %84
  %89 = call i32 @errcode(i32 noundef 16801924)
  %90 = load ptr, ptr %3, align 8
  %91 = getelementptr inbounds nuw %struct.DefElem, ptr %90, i32 0, i32 2
  %92 = load ptr, ptr %91, align 8
  %93 = load ptr, ptr %3, align 8
  %94 = call ptr @defGetString(ptr noundef %93)
  %95 = call i32 (ptr, ...) @errmsg(ptr noundef @.str.15, ptr noundef %92, ptr noundef %94)
  call void @errfinish(ptr noundef @.str.1, i32 noundef 335, ptr noundef @__func__.defGetTypeLength)
  br label %96

96:                                               ; preds = %88, %86, %84
  unreachable

97:                                               ; No predecessors!
  store i32 0, ptr %2, align 4
  br label %98

98:                                               ; preds = %97, %65, %56, %28
  %99 = load i32, ptr %2, align 4
  ret i32 %99
}