; Function Attrs: nounwind uwtable
define dso_local i32 @defGetTypeLength(ptr noundef readonly captures(none) %0) local_unnamed_addr #0 {
  %2 = getelementptr inbounds nuw i8, ptr %0, i64 24
  %3 = load ptr, ptr %2, align 8
  %4 = icmp eq ptr %3, null
  br i1 %4, label %5, label %11

5:                                                ; preds = %1
  %6 = tail call zeroext i1 @errstart_cold(i32 noundef 21, ptr noundef null) #6
  tail call void @llvm.assume(i1 %6)
  %7 = tail call i32 @errcode(i32 noundef 16801924) #7
  %8 = getelementptr inbounds nuw i8, ptr %0, i64 16
  %9 = load ptr, ptr %8, align 8
  %10 = tail call i32 (ptr, ...) @errmsg(ptr noundef nonnull @.str, ptr noundef %9) #7
  tail call void @errfinish(ptr noundef nonnull @.str.1, i32 noundef 305, ptr noundef nonnull @__func__.defGetTypeLength) #7
  unreachable

11:                                               ; preds = %1
  %12 = load i32, ptr %3, align 4
  switch i32 %12, label %31 [
    i32 464, label %13
    i32 465, label %16
    i32 467, label %22
    i32 68, label %27
    i32 1, label %36
  ]

13:                                               ; preds = %11
  %14 = getelementptr inbounds nuw i8, ptr %3, i64 4
  %15 = load i32, ptr %14, align 4
  br label %43

16:                                               ; preds = %11
  %17 = tail call zeroext i1 @errstart_cold(i32 noundef 21, ptr noundef null) #6
  tail call void @llvm.assume(i1 %17)
  %18 = tail call i32 @errcode(i32 noundef 16801924) #7
  %19 = getelementptr inbounds nuw i8, ptr %0, i64 16
  %20 = load ptr, ptr %19, align 8
  %21 = tail call i32 (ptr, ...) @errmsg(ptr noundef nonnull @.str.11, ptr noundef %20) #7
  tail call void @errfinish(ptr noundef nonnull @.str.1, i32 noundef 314, ptr noundef nonnull @__func__.defGetTypeLength) #7
  unreachable

22:                                               ; preds = %11
  %23 = getelementptr inbounds nuw i8, ptr %3, i64 8
  %24 = load ptr, ptr %23, align 8
  %25 = tail call i32 @pg_strcasecmp(ptr noundef %24, ptr noundef nonnull @.str.14) #7
  %26 = icmp eq i32 %25, 0
  br i1 %26, label %43, label %36

27:                                               ; preds = %11
  %28 = tail call ptr @TypeNameToString(ptr noundef nonnull %3) #7
  %29 = tail call i32 @pg_strcasecmp(ptr noundef %28, ptr noundef nonnull @.str.14) #7
  %30 = icmp eq i32 %29, 0
  br i1 %30, label %43, label %36

31:                                               ; preds = %11
  %32 = tail call zeroext i1 @errstart_cold(i32 noundef 21, ptr noundef null) #6
  tail call void @llvm.assume(i1 %32)
  %33 = load ptr, ptr %2, align 8
  %34 = load i32, ptr %33, align 4
  %35 = tail call i32 (ptr, ...) @errmsg_internal(ptr noundef nonnull @.str.6, i32 noundef %34) #7
  tail call void @errfinish(ptr noundef nonnull @.str.1, i32 noundef 330, ptr noundef nonnull @__func__.defGetTypeLength) #7
  unreachable

36:                                               ; preds = %27, %22, %11
  %37 = tail call zeroext i1 @errstart_cold(i32 noundef 21, ptr noundef null) #6
  tail call void @llvm.assume(i1 %37)
  %38 = tail call i32 @errcode(i32 noundef 16801924) #7
  %39 = getelementptr inbounds nuw i8, ptr %0, i64 16
  %40 = load ptr, ptr %39, align 8
  %41 = tail call ptr @defGetString(ptr noundef nonnull %0)
  %42 = tail call i32 (ptr, ...) @errmsg(ptr noundef nonnull @.str.15, ptr noundef %40, ptr noundef %41) #7
  tail call void @errfinish(ptr noundef nonnull @.str.1, i32 noundef 335, ptr noundef nonnull @__func__.defGetTypeLength) #7
  unreachable

43:                                               ; preds = %27, %22, %13
  %.0 = phi i32 [ %15, %13 ], [ -1, %22 ], [ -1, %27 ]
  ret i32 %.0
}